target datalayout = "e-m:e-p270:32:32-p271:32:32-p272:64:64-i64:64-i128:128-f80:128-n8:16:32:64-S128"
target triple = "x86_64-pc-linux-gnu"

@proto_register_rpkirtr.ett = internal global [4 x ptr] [ptr @ett_rpkirtr, ptr @ett_flags, ptr @ett_flags_nd, ptr @ett_providers], align 16
@.str.75 = private unnamed_addr constant [21 x i8] c"RPKI-Router Protocol\00", align 1
@.str.76 = private unnamed_addr constant [8 x i8] c"rpkirtr\00", align 1
@proto_rpkirtr = internal global i32 0, align 4
@.str.77 = private unnamed_addr constant [21 x i8] c"tcp.rpkirtr_tls.port\00", align 1
@.str.78 = private unnamed_addr constant [22 x i8] c"RPKI-RTR TCP TLS Port\00", align 1
@.str.79 = private unnamed_addr constant [60 x i8] c"RPKI-Router Protocol TCP TLS port if other than the default\00", align 1
@g_port_rpkirtr_tls = internal global i32 324, align 4
@rpkirtr_handle = internal global ptr null, align 8

; Function Attrs: null_pointer_is_valid sspstrong uwtable
define hidden void @proto_register_rpkirtr() #0 {
  %1 = alloca ptr, align 8
  %2 = alloca ptr, align 8
  call void @llvm.lifetime.start.p0(i64 8, ptr %1) #3
  call void @llvm.lifetime.start.p0(i64 8, ptr %2) #3
  %3 = call i32 @proto_register_protocol(ptr noundef @.str.75, ptr noundef @.str.75, ptr noundef @.str.76)
  store i32 %3, ptr @proto_rpkirtr, align 4
  %4 = load i32, ptr @proto_rpkirtr, align 4
  call void @proto_register_field_array(i32 noundef %4, ptr noundef @proto_register_rpkirtr.hf, i32 noundef 29)
  call void @proto_register_subtree_array(ptr noundef @proto_register_rpkirtr.ett, i32 noundef 4)
  %5 = load i32, ptr @proto_rpkirtr, align 4
  %6 = call ptr @prefs_register_protocol(i32 noundef %5, ptr noundef @proto_reg_handoff_rpkirtr)
  store ptr %6, ptr %1, align 8
  %7 = load ptr, ptr %1, align 8
  call void @prefs_register_uint_preference(ptr noundef %7, ptr noundef @.str.77, ptr noundef @.str.78, ptr noundef @.str.79, i32 noundef 10, ptr noundef @g_port_rpkirtr_tls)
  %8 = load i32, ptr @proto_rpkirtr, align 4
  %9 = call ptr @expert_register_protocol(i32 noundef %8)
  store ptr %9, ptr %2, align 8
  %10 = load ptr, ptr %2, align 8
  call void @expert_register_field_array(ptr noundef %10, ptr noundef @proto_register_rpkirtr.ei, i32 noundef 3)
  %11 = load i32, ptr @proto_rpkirtr, align 4
  %12 = call ptr @register_dissector(ptr noundef @.str.76, ptr noundef @dissect_rpkirtr, i32 noundef %11)
  store ptr %12, ptr @rpkirtr_handle, align 8
  call void @llvm.lifetime.end.p0(i64 8, ptr %2) #3
  call void @llvm.lifetime.end.p0(i64 8, ptr %1) #3
  ret void
}