; Function Attrs: null_pointer_is_valid sspstrong uwtable
define hidden void @proto_register_rpkirtr() local_unnamed_addr #0 {
  %1 = tail call i32 @proto_register_protocol(ptr noundef nonnull @.str.75, ptr noundef nonnull @.str.75, ptr noundef nonnull @.str.76)
  store i32 %1, ptr @proto_rpkirtr, align 4
  tail call void @proto_register_field_array(i32 noundef %1, ptr noundef nonnull @proto_register_rpkirtr.hf, i32 noundef 29)
  tail call void @proto_register_subtree_array(ptr noundef nonnull @proto_register_rpkirtr.ett, i32 noundef 4)
  %2 = load i32, ptr @proto_rpkirtr, align 4
  %3 = tail call ptr @prefs_register_protocol(i32 noundef %2, ptr noundef nonnull @proto_reg_handoff_rpkirtr)
  tail call void @prefs_register_uint_preference(ptr noundef %3, ptr noundef nonnull @.str.77, ptr noundef nonnull @.str.78, ptr noundef nonnull @.str.79, i32 noundef 10, ptr noundef nonnull @g_port_rpkirtr_tls)
  %4 = load i32, ptr @proto_rpkirtr, align 4
  %5 = tail call ptr @expert_register_protocol(i32 noundef %4)
  tail call void @expert_register_field_array(ptr noundef %5, ptr noundef nonnull @proto_register_rpkirtr.ei, i32 noundef 3)
  %6 = load i32, ptr @proto_rpkirtr, align 4
  %7 = tail call ptr @register_dissector(ptr noundef nonnull @.str.76, ptr noundef nonnull @dissect_rpkirtr, i32 noundef %6)
  store ptr %7, ptr @rpkirtr_handle, align 8
  ret void
}